target datalayout = "e-m:e-p270:32:32-p271:32:32-p272:64:64-i64:64-i128:128-f80:128-n8:16:32:64-S128"
target triple = "x86_64-pc-linux-gnu"

%struct.TCGOp = type { i32, i32, %union.anon, [2 x i32], [0 x i64] }
%union.anon = type { %struct.QTailQLink }
%struct.QTailQLink = type { ptr, ptr }

@tcg_ctx = external thread_local global ptr, align 8

; Function Attrs: inlinehint nounwind sspstrong uwtable
define internal ptr @tcgv_i32_temp(ptr noundef %0) #4 {
  %2 = alloca ptr, align 8
  store ptr %0, ptr %2, align 8
  %3 = call align 8 ptr @llvm.threadlocal.address.p0(ptr align 8 @tcg_ctx)
  %4 = load ptr, ptr %3, align 8
  %5 = load ptr, ptr %2, align 8
  %6 = ptrtoint ptr %5 to i64
  %7 = getelementptr inbounds nuw i8, ptr %4, i64 %6
  ret ptr %7
}

; Function Attrs: inlinehint nounwind sspstrong uwtable
define internal i64 @temp_arg(ptr noundef %0) #4 {
  %2 = alloca ptr, align 8
  store ptr %0, ptr %2, align 8
  %3 = load ptr, ptr %2, align 8
  %4 = ptrtoint ptr %3 to i64
  ret i64 %4
}

; Function Attrs: inlinehint nounwind sspstrong uwtable
define internal ptr @tcgv_i64_temp(ptr noundef %0) #4 {
  %2 = alloca ptr, align 8
  store ptr %0, ptr %2, align 8
  %3 = load ptr, ptr %2, align 8
  %4 = call ptr @tcgv_i32_temp(ptr noundef %3)
  ret ptr %4
}

; Function Attrs: noinline nounwind sspstrong uwtable
define dso_local ptr @tcg_gen_op4(i32 noundef %0, i32 noundef %1, i64 noundef %2, i64 noundef %3, i64 noundef %4, i64 noundef %5) #0 {
  %7 = alloca i32, align 4
  %8 = alloca i32, align 4
  %9 = alloca i64, align 8
  %10 = alloca i64, align 8
  %11 = alloca i64, align 8
  %12 = alloca i64, align 8
  %13 = alloca ptr, align 8
  store i32 %0, ptr %7, align 4
  store i32 %1, ptr %8, align 4
  store i64 %2, ptr %9, align 8
  store i64 %3, ptr %10, align 8
  store i64 %4, ptr %11, align 8
  store i64 %5, ptr %12, align 8
  call void @llvm.lifetime.start.p0(i64 8, ptr %13) #7
  %14 = load i32, ptr %7, align 4
  %15 = call ptr @tcg_emit_op(i32 noundef %14, i32 noundef 4)
  store ptr %15, ptr %13, align 8
  %16 = load i32, ptr %8, align 4
  %17 = load ptr, ptr %13, align 8
  %18 = load i32, ptr %17, align 8
  %19 = and i32 %16, 255
  %20 = shl i32 %19, 16
  %21 = and i32 %18, -16711681
  %22 = or i32 %21, %20
  store i32 %22, ptr %17, align 8
  %23 = load i64, ptr %9, align 8
  %24 = load ptr, ptr %13, align 8
  %25 = getelementptr inbounds nuw %struct.TCGOp, ptr %24, i32 0, i32 4
  %26 = getelementptr inbounds [0 x i64], ptr %25, i64 0, i64 0
  store i64 %23, ptr %26, align 8
  %27 = load i64, ptr %10, align 8
  %28 = load ptr, ptr %13, align 8
  %29 = getelementptr inbounds nuw %struct.TCGOp, ptr %28, i32 0, i32 4
  %30 = getelementptr inbounds [0 x i64], ptr %29, i64 0, i64 1
  store i64 %27, ptr %30, align 8
  %31 = load i64, ptr %11, align 8
  %32 = load ptr, ptr %13, align 8
  %33 = getelementptr inbounds nuw %struct.TCGOp, ptr %32, i32 0, i32 4
  %34 = getelementptr inbounds [0 x i64], ptr %33, i64 0, i64 2
  store i64 %31, ptr %34, align 8
  %35 = load i64, ptr %12, align 8
  %36 = load ptr, ptr %13, align 8
  %37 = getelementptr inbounds nuw %struct.TCGOp, ptr %36, i32 0, i32 4
  %38 = getelementptr inbounds [0 x i64], ptr %37, i64 0, i64 3
  store i64 %35, ptr %38, align 8
  %39 = load ptr, ptr %13, align 8
  call void @llvm.lifetime.end.p0(i64 8, ptr %13) #7
  ret ptr %39
}

; Function Attrs: inlinehint nounwind sspstrong uwtable
define internal i64 @tcgv_i64_arg(ptr noundef %0) #4 {
  %2 = alloca ptr, align 8
  store ptr %0, ptr %2, align 8
  %3 = load ptr, ptr %2, align 8
  %4 = call ptr @tcgv_i64_temp(ptr noundef %3)
  %5 = call i64 @temp_arg(ptr noundef %4)
  ret i64 %5
}

; Function Attrs: nounwind sspstrong uwtable
define internal void @tcg_gen_op2_i64(i32 noundef %0, ptr noundef %1, ptr noundef %2) #3 {
  %4 = alloca i32, align 4
  %5 = alloca ptr, align 8
  %6 = alloca ptr, align 8
  store i32 %0, ptr %4, align 4
  store ptr %1, ptr %5, align 8
  store ptr %2, ptr %6, align 8
  %7 = load i32, ptr %4, align 4
  %8 = load ptr, ptr %5, align 8
  %9 = call i64 @tcgv_i64_arg(ptr noundef %8)
  %10 = load ptr, ptr %6, align 8
  %11 = call i64 @tcgv_i64_arg(ptr noundef %10)
  %12 = call ptr @tcg_gen_op2(i32 noundef %7, i32 noundef 1, i64 noundef %9, i64 noundef %11)
  ret void
}

; Function Attrs: nounwind sspstrong uwtable
define internal ptr @tcg_gen_op4ii_i64(i32 noundef %0, ptr noundef %1, ptr noundef %2, i64 noundef %3, i64 noundef %4) #3 {
  %6 = alloca i32, align 4
  %7 = alloca ptr, align 8
  %8 = alloca ptr, align 8
  %9 = alloca i64, align 8
  %10 = alloca i64, align 8
  store i32 %0, ptr %6, align 4
  store ptr %1, ptr %7, align 8
  store ptr %2, ptr %8, align 8
  store i64 %3, ptr %9, align 8
  store i64 %4, ptr %10, align 8
  %11 = load i32, ptr %6, align 4
  %12 = load ptr, ptr %7, align 8
  %13 = call i64 @tcgv_i64_arg(ptr noundef %12)
  %14 = load ptr, ptr %8, align 8
  %15 = call i64 @tcgv_i64_arg(ptr noundef %14)
  %16 = load i64, ptr %9, align 8
  %17 = load i64, ptr %10, align 8
  %18 = call ptr @tcg_gen_op4(i32 noundef %11, i32 noundef 1, i64 noundef %13, i64 noundef %15, i64 noundef %16, i64 noundef %17)
  ret ptr %18
}

; Function Attrs: inlinehint nounwind sspstrong uwtable
define internal zeroext i1 @tcg_target_sextract_valid(i32 noundef %0, i32 noundef %1, i32 noundef %2) #4 {
  %4 = alloca i1, align 1
  %5 = alloca i32, align 4
  %6 = alloca i32, align 4
  %7 = alloca i32, align 4
  store i32 %0, ptr %5, align 4
  store i32 %1, ptr %6, align 4
  store i32 %2, ptr %7, align 4
  %8 = load i32, ptr %6, align 4
  switch i32 %8, label %24 [
    i32 0, label %9
    i32 8, label %16
  ]

9:                                                ; preds = %3
  %10 = load i32, ptr %7, align 4
  switch i32 %10, label %15 [
    i32 8, label %11
    i32 16, label %11
    i32 32, label %12
  ]

11:                                               ; preds = %9, %9
  store i1 true, ptr %4, align 1
  br label %25

12:                                               ; preds = %9
  %13 = load i32, ptr %5, align 4
  %14 = icmp eq i32 %13, 1
  store i1 %14, ptr %4, align 1
  br label %25

15:                                               ; preds = %9
  store i1 false, ptr %4, align 1
  br label %25

16:                                               ; preds = %3
  %17 = load i32, ptr %7, align 4
  %18 = icmp eq i32 %17, 8
  br i1 %18, label %19, label %22

19:                                               ; preds = %16
  %20 = load i32, ptr %5, align 4
  %21 = icmp eq i32 %20, 0
  br label %22

22:                                               ; preds = %19, %16
  %23 = phi i1 [ false, %16 ], [ %21, %19 ]
  store i1 %23, ptr %4, align 1
  br label %25

24:                                               ; preds = %3
  store i1 false, ptr %4, align 1
  br label %25

25:                                               ; preds = %24, %22, %15, %12, %11
  %26 = load i1, ptr %4, align 1
  ret i1 %26
}

; Function Attrs: nounwind sspstrong uwtable
define dso_local void @tcg_gen_ext8s_i64(ptr noundef %0, ptr noundef %1) #3 {
  %3 = alloca ptr, align 8
  %4 = alloca ptr, align 8
  store ptr %0, ptr %3, align 8
  store ptr %1, ptr %4, align 8
  %5 = load ptr, ptr %3, align 8
  %6 = load ptr, ptr %4, align 8
  call void @tcg_gen_op2_i64(i32 noundef 104, ptr noundef %5, ptr noundef %6)
  ret void
}

; Function Attrs: nounwind sspstrong uwtable
define dso_local void @tcg_gen_ext16s_i64(ptr noundef %0, ptr noundef %1) #3 {
  %3 = alloca ptr, align 8
  %4 = alloca ptr, align 8
  store ptr %0, ptr %3, align 8
  store ptr %1, ptr %4, align 8
  %5 = load ptr, ptr %3, align 8
  %6 = load ptr, ptr %4, align 8
  call void @tcg_gen_op2_i64(i32 noundef 105, ptr noundef %5, ptr noundef %6)
  ret void
}

; Function Attrs: nounwind sspstrong uwtable
define dso_local void @tcg_gen_ext32s_i64(ptr noundef %0, ptr noundef %1) #3 {
  %3 = alloca ptr, align 8
  %4 = alloca ptr, align 8
  store ptr %0, ptr %3, align 8
  store ptr %1, ptr %4, align 8
  %5 = load ptr, ptr %3, align 8
  %6 = load ptr, ptr %4, align 8
  call void @tcg_gen_op2_i64(i32 noundef 106, ptr noundef %5, ptr noundef %6)
  ret void
}

; Function Attrs: nounwind sspstrong uwtable
define dso_local void @tcg_gen_sextract_i64(ptr noundef %0, ptr noundef %1, i32 noundef %2, i32 noundef %3) #3 {
  %5 = alloca ptr, align 8
  %6 = alloca ptr, align 8
  %7 = alloca i32, align 4
  %8 = alloca i32, align 4
  store ptr %0, ptr %5, align 8
  store ptr %1, ptr %6, align 8
  store i32 %2, ptr %7, align 4
  store i32 %3, ptr %8, align 4
  br label %9

9:                                                ; preds = %4
  %10 = load i32, ptr %7, align 4
  %11 = icmp ult i32 %10, 64
  br i1 %11, label %13, label %12

12:                                               ; preds = %9
  unreachable

13:                                               ; preds = %9
  br label %14

14:                                               ; preds = %13
  br label %15

15:                                               ; preds = %14
  %16 = load i32, ptr %8, align 4
  %17 = icmp ugt i32 %16, 0
  br i1 %17, label %19, label %18

18:                                               ; preds = %15
  unreachable

19:                                               ; preds = %15
  br label %20

20:                                               ; preds = %19
  br label %21

21:                                               ; preds = %20
  %22 = load i32, ptr %8, align 4
  %23 = icmp ule i32 %22, 64
  br i1 %23, label %25, label %24

24:                                               ; preds = %21
  unreachable

25:                                               ; preds = %21
  br label %26

26:                                               ; preds = %25
  br label %27

27:                                               ; preds = %26
  %28 = load i32, ptr %7, align 4
  %29 = load i32, ptr %8, align 4
  %30 = add i32 %28, %29
  %31 = icmp ule i32 %30, 64
  br i1 %31, label %33, label %32

32:                                               ; preds = %27
  unreachable

33:                                               ; preds = %27
  br label %34

34:                                               ; preds = %33
  %35 = load i32, ptr %7, align 4
  %36 = load i32, ptr %8, align 4
  %37 = add i32 %35, %36
  %38 = icmp eq i32 %37, 64
  br i1 %38, label %39, label %45

39:                                               ; preds = %34
  %40 = load ptr, ptr %5, align 8
  %41 = load ptr, ptr %6, align 8
  %42 = load i32, ptr %8, align 4
  %43 = sub i32 64, %42
  %44 = zext i32 %43 to i64
  call void @tcg_gen_sari_i64(ptr noundef %40, ptr noundef %41, i64 noundef %44)
  br label %133

45:                                               ; preds = %34
  %46 = load i32, ptr %7, align 4
  %47 = icmp eq i32 %46, 0
  br i1 %47, label %48, label %60

48:                                               ; preds = %45
  %49 = load i32, ptr %8, align 4
  switch i32 %49, label %59 [
    i32 32, label %50
    i32 16, label %53
    i32 8, label %56
  ]

50:                                               ; preds = %48
  %51 = load ptr, ptr %5, align 8
  %52 = load ptr, ptr %6, align 8
  call void @tcg_gen_ext32s_i64(ptr noundef %51, ptr noundef %52)
  br label %133

53:                                               ; preds = %48
  %54 = load ptr, ptr %5, align 8
  %55 = load ptr, ptr %6, align 8
  call void @tcg_gen_ext16s_i64(ptr noundef %54, ptr noundef %55)
  br label %133

56:                                               ; preds = %48
  %57 = load ptr, ptr %5, align 8
  %58 = load ptr, ptr %6, align 8
  call void @tcg_gen_ext8s_i64(ptr noundef %57, ptr noundef %58)
  br label %133

59:                                               ; preds = %48
  br label %60

60:                                               ; preds = %59, %45
  %61 = load i32, ptr %7, align 4
  %62 = load i32, ptr %8, align 4
  %63 = call zeroext i1 @tcg_target_sextract_valid(i32 noundef 1, i32 noundef %61, i32 noundef %62)
  br i1 %63, label %64, label %72

64:                                               ; preds = %60
  %65 = load ptr, ptr %5, align 8
  %66 = load ptr, ptr %6, align 8
  %67 = load i32, ptr %7, align 4
  %68 = zext i32 %67 to i64
  %69 = load i32, ptr %8, align 4
  %70 = zext i32 %69 to i64
  %71 = call ptr @tcg_gen_op4ii_i64(i32 noundef 97, ptr noundef %65, ptr noundef %66, i64 noundef %68, i64 noundef %70)
  br label %133

72:                                               ; preds = %60
  %73 = load i32, ptr %7, align 4
  %74 = load i32, ptr %8, align 4
  %75 = add i32 %73, %74
  switch i32 %75, label %97 [
    i32 32, label %76
    i32 16, label %83
    i32 8, label %90
  ]

76:                                               ; preds = %72
  %77 = load ptr, ptr %5, align 8
  %78 = load ptr, ptr %6, align 8
  call void @tcg_gen_ext32s_i64(ptr noundef %77, ptr noundef %78)
  %79 = load ptr, ptr %5, align 8
  %80 = load ptr, ptr %5, align 8
  %81 = load i32, ptr %7, align 4
  %82 = zext i32 %81 to i64
  call void @tcg_gen_sari_i64(ptr noundef %79, ptr noundef %80, i64 noundef %82)
  br label %133

83:                                               ; preds = %72
  %84 = load ptr, ptr %5, align 8
  %85 = load ptr, ptr %6, align 8
  call void @tcg_gen_ext16s_i64(ptr noundef %84, ptr noundef %85)
  %86 = load ptr, ptr %5, align 8
  %87 = load ptr, ptr %5, align 8
  %88 = load i32, ptr %7, align 4
  %89 = zext i32 %88 to i64
  call void @tcg_gen_sari_i64(ptr noundef %86, ptr noundef %87, i64 noundef %89)
  br label %133

90:                                               ; preds = %72
  %91 = load ptr, ptr %5, align 8
  %92 = load ptr, ptr %6, align 8
  call void @tcg_gen_ext8s_i64(ptr noundef %91, ptr noundef %92)
  %93 = load ptr, ptr %5, align 8
  %94 = load ptr, ptr %5, align 8
  %95 = load i32, ptr %7, align 4
  %96 = zext i32 %95 to i64
  call void @tcg_gen_sari_i64(ptr noundef %93, ptr noundef %94, i64 noundef %96)
  br label %133

97:                                               ; preds = %72
  %98 = load i32, ptr %8, align 4
  switch i32 %98, label %120 [
    i32 32, label %99
    i32 16, label %106
    i32 8, label %113
  ]

99:                                               ; preds = %97
  %100 = load ptr, ptr %5, align 8
  %101 = load ptr, ptr %6, align 8
  %102 = load i32, ptr %7, align 4
  %103 = zext i32 %102 to i64
  call void @tcg_gen_shri_i64(ptr noundef %100, ptr noundef %101, i64 noundef %103)
  %104 = load ptr, ptr %5, align 8
  %105 = load ptr, ptr %5, align 8
  call void @tcg_gen_ext32s_i64(ptr noundef %104, ptr noundef %105)
  br label %133

106:                                              ; preds = %97
  %107 = load ptr, ptr %5, align 8
  %108 = load ptr, ptr %6, align 8
  %109 = load i32, ptr %7, align 4
  %110 = zext i32 %109 to i64
  call void @tcg_gen_shri_i64(ptr noundef %107, ptr noundef %108, i64 noundef %110)
  %111 = load ptr, ptr %5, align 8
  %112 = load ptr, ptr %5, align 8
  call void @tcg_gen_ext16s_i64(ptr noundef %111, ptr noundef %112)
  br label %133

113:                                              ; preds = %97
  %114 = load ptr, ptr %5, align 8
  %115 = load ptr, ptr %6, align 8
  %116 = load i32, ptr %7, align 4
  %117 = zext i32 %116 to i64
  call void @tcg_gen_shri_i64(ptr noundef %114, ptr noundef %115, i64 noundef %117)
  %118 = load ptr, ptr %5, align 8
  %119 = load ptr, ptr %5, align 8
  call void @tcg_gen_ext8s_i64(ptr noundef %118, ptr noundef %119)
  br label %133

120:                                              ; preds = %97
  %121 = load ptr, ptr %5, align 8
  %122 = load ptr, ptr %6, align 8
  %123 = load i32, ptr %8, align 4
  %124 = sub i32 64, %123
  %125 = load i32, ptr %7, align 4
  %126 = sub i32 %124, %125
  %127 = zext i32 %126 to i64
  call void @tcg_gen_shli_i64(ptr noundef %121, ptr noundef %122, i64 noundef %127)
  %128 = load ptr, ptr %5, align 8
  %129 = load ptr, ptr %5, align 8
  %130 = load i32, ptr %8, align 4
  %131 = sub i32 64, %130
  %132 = zext i32 %131 to i64
  call void @tcg_gen_sari_i64(ptr noundef %128, ptr noundef %129, i64 noundef %132)
  br label %133

133:                                              ; preds = %120, %113, %106, %99, %90, %83, %76, %64, %56, %53, %50, %39
  ret void
}