; Function Attrs: nounwind sspstrong uwtable
define dso_local void @tcg_gen_sextract_i64(ptr noundef %0, ptr noundef %1, i32 noundef %2, i32 noundef %3) local_unnamed_addr #2 {
  %5 = icmp samesign ult i32 %2, 64
  tail call void @llvm.assume(i1 %5)
  %6 = icmp ne i32 %3, 0
  tail call void @llvm.assume(i1 %6)
  %7 = add nuw nsw i32 %3, %2
  %8 = icmp samesign ult i32 %7, 65
  tail call void @llvm.assume(i1 %8)
  %9 = icmp eq i32 %7, 64
  br i1 %9, label %10, label %40

10:                                               ; preds = %4
  %11 = icmp eq i32 %3, 64
  br i1 %11, label %12, label %24

12:                                               ; preds = %10
  %13 = icmp eq ptr %0, %1
  br i1 %13, label %tcg_gen_sari_i64.exit, label %14

14:                                               ; preds = %12
  %15 = tail call align 8 ptr @llvm.threadlocal.address.p0(ptr align 8 @tcg_ctx)
  %16 = load ptr, ptr %15, align 8
  %17 = ptrtoint ptr %0 to i64
  %18 = getelementptr inbounds nuw i8, ptr %16, i64 %17
  %19 = ptrtoint ptr %18 to i64
  %20 = ptrtoint ptr %1 to i64
  %21 = getelementptr inbounds nuw i8, ptr %16, i64 %20
  %22 = ptrtoint ptr %21 to i64
  %23 = tail call ptr @tcg_gen_op2(i32 noundef 63, i32 noundef 1, i64 noundef %19, i64 noundef %22)
  br label %tcg_gen_sari_i64.exit

24:                                               ; preds = %10
  %25 = sub nuw nsw i32 64, %3
  %26 = zext nneg i32 %25 to i64
  %27 = tail call ptr @tcg_constant_i64(i64 noundef %26) #6
  %28 = tail call align 8 ptr @llvm.threadlocal.address.p0(ptr align 8 @tcg_ctx)
  %29 = load ptr, ptr %28, align 8
  %30 = ptrtoint ptr %0 to i64
  %31 = getelementptr inbounds nuw i8, ptr %29, i64 %30
  %32 = ptrtoint ptr %31 to i64
  %33 = ptrtoint ptr %1 to i64
  %34 = getelementptr inbounds nuw i8, ptr %29, i64 %33
  %35 = ptrtoint ptr %34 to i64
  %36 = ptrtoint ptr %27 to i64
  %37 = getelementptr inbounds nuw i8, ptr %29, i64 %36
  %38 = ptrtoint ptr %37 to i64
  %39 = tail call ptr @tcg_gen_op3(i32 noundef 92, i32 noundef 1, i64 noundef %32, i64 noundef %35, i64 noundef %38)
  br label %tcg_gen_sari_i64.exit

40:                                               ; preds = %4
  %41 = icmp eq i32 %2, 0
  br i1 %41, label %42, label %.split

42:                                               ; preds = %40
  switch i32 %3, label %.split [
    i32 32, label %43
    i32 16, label %53
    i32 8, label %63
  ]

43:                                               ; preds = %42
  %44 = tail call align 8 ptr @llvm.threadlocal.address.p0(ptr align 8 @tcg_ctx)
  %45 = load ptr, ptr %44, align 8
  %46 = ptrtoint ptr %0 to i64
  %47 = getelementptr inbounds nuw i8, ptr %45, i64 %46
  %48 = ptrtoint ptr %47 to i64
  %49 = ptrtoint ptr %1 to i64
  %50 = getelementptr inbounds nuw i8, ptr %45, i64 %49
  %51 = ptrtoint ptr %50 to i64
  %52 = tail call ptr @tcg_gen_op2(i32 noundef 106, i32 noundef 1, i64 noundef %48, i64 noundef %51)
  br label %tcg_gen_sari_i64.exit

53:                                               ; preds = %42
  %54 = tail call align 8 ptr @llvm.threadlocal.address.p0(ptr align 8 @tcg_ctx)
  %55 = load ptr, ptr %54, align 8
  %56 = ptrtoint ptr %0 to i64
  %57 = getelementptr inbounds nuw i8, ptr %55, i64 %56
  %58 = ptrtoint ptr %57 to i64
  %59 = ptrtoint ptr %1 to i64
  %60 = getelementptr inbounds nuw i8, ptr %55, i64 %59
  %61 = ptrtoint ptr %60 to i64
  %62 = tail call ptr @tcg_gen_op2(i32 noundef 105, i32 noundef 1, i64 noundef %58, i64 noundef %61)
  br label %tcg_gen_sari_i64.exit

63:                                               ; preds = %42
  %64 = tail call align 8 ptr @llvm.threadlocal.address.p0(ptr align 8 @tcg_ctx)
  %65 = load ptr, ptr %64, align 8
  %66 = ptrtoint ptr %0 to i64
  %67 = getelementptr inbounds nuw i8, ptr %65, i64 %66
  %68 = ptrtoint ptr %67 to i64
  %69 = ptrtoint ptr %1 to i64
  %70 = getelementptr inbounds nuw i8, ptr %65, i64 %69
  %71 = ptrtoint ptr %70 to i64
  %72 = tail call ptr @tcg_gen_op2(i32 noundef 104, i32 noundef 1, i64 noundef %68, i64 noundef %71)
  br label %tcg_gen_sari_i64.exit

.split:                                           ; preds = %42, %40
  switch i32 %7, label %133 [
    i32 32, label %73
    i32 16, label %93
    i32 8, label %113
  ]

73:                                               ; preds = %.split
  %74 = tail call align 8 ptr @llvm.threadlocal.address.p0(ptr align 8 @tcg_ctx)
  %75 = load ptr, ptr %74, align 8
  %76 = ptrtoint ptr %0 to i64
  %77 = getelementptr inbounds nuw i8, ptr %75, i64 %76
  %78 = ptrtoint ptr %77 to i64
  %79 = ptrtoint ptr %1 to i64
  %80 = getelementptr inbounds nuw i8, ptr %75, i64 %79
  %81 = ptrtoint ptr %80 to i64
  %82 = tail call ptr @tcg_gen_op2(i32 noundef 106, i32 noundef 1, i64 noundef %78, i64 noundef %81)
  br i1 %41, label %tcg_gen_sari_i64.exit, label %83

83:                                               ; preds = %73
  %84 = zext nneg i32 %2 to i64
  %85 = tail call ptr @tcg_constant_i64(i64 noundef %84) #6
  %86 = load ptr, ptr %74, align 8
  %87 = getelementptr inbounds nuw i8, ptr %86, i64 %76
  %88 = ptrtoint ptr %87 to i64
  %89 = ptrtoint ptr %85 to i64
  %90 = getelementptr inbounds nuw i8, ptr %86, i64 %89
  %91 = ptrtoint ptr %90 to i64
  %92 = tail call ptr @tcg_gen_op3(i32 noundef 92, i32 noundef 1, i64 noundef %88, i64 noundef %88, i64 noundef %91)
  br label %tcg_gen_sari_i64.exit

93:                                               ; preds = %.split
  %94 = tail call align 8 ptr @llvm.threadlocal.address.p0(ptr align 8 @tcg_ctx)
  %95 = load ptr, ptr %94, align 8
  %96 = ptrtoint ptr %0 to i64
  %97 = getelementptr inbounds nuw i8, ptr %95, i64 %96
  %98 = ptrtoint ptr %97 to i64
  %99 = ptrtoint ptr %1 to i64
  %100 = getelementptr inbounds nuw i8, ptr %95, i64 %99
  %101 = ptrtoint ptr %100 to i64
  %102 = tail call ptr @tcg_gen_op2(i32 noundef 105, i32 noundef 1, i64 noundef %98, i64 noundef %101)
  br i1 %41, label %tcg_gen_sari_i64.exit, label %103

103:                                              ; preds = %93
  %104 = zext nneg i32 %2 to i64
  %105 = tail call ptr @tcg_constant_i64(i64 noundef %104) #6
  %106 = load ptr, ptr %94, align 8
  %107 = getelementptr inbounds nuw i8, ptr %106, i64 %96
  %108 = ptrtoint ptr %107 to i64
  %109 = ptrtoint ptr %105 to i64
  %110 = getelementptr inbounds nuw i8, ptr %106, i64 %109
  %111 = ptrtoint ptr %110 to i64
  %112 = tail call ptr @tcg_gen_op3(i32 noundef 92, i32 noundef 1, i64 noundef %108, i64 noundef %108, i64 noundef %111)
  br label %tcg_gen_sari_i64.exit

113:                                              ; preds = %.split
  %114 = tail call align 8 ptr @llvm.threadlocal.address.p0(ptr align 8 @tcg_ctx)
  %115 = load ptr, ptr %114, align 8
  %116 = ptrtoint ptr %0 to i64
  %117 = getelementptr inbounds nuw i8, ptr %115, i64 %116
  %118 = ptrtoint ptr %117 to i64
  %119 = ptrtoint ptr %1 to i64
  %120 = getelementptr inbounds nuw i8, ptr %115, i64 %119
  %121 = ptrtoint ptr %120 to i64
  %122 = tail call ptr @tcg_gen_op2(i32 noundef 104, i32 noundef 1, i64 noundef %118, i64 noundef %121)
  br i1 %41, label %tcg_gen_sari_i64.exit, label %123

123:                                              ; preds = %113
  %124 = zext nneg i32 %2 to i64
  %125 = tail call ptr @tcg_constant_i64(i64 noundef %124) #6
  %126 = load ptr, ptr %114, align 8
  %127 = getelementptr inbounds nuw i8, ptr %126, i64 %116
  %128 = ptrtoint ptr %127 to i64
  %129 = ptrtoint ptr %125 to i64
  %130 = getelementptr inbounds nuw i8, ptr %126, i64 %129
  %131 = ptrtoint ptr %130 to i64
  %132 = tail call ptr @tcg_gen_op3(i32 noundef 92, i32 noundef 1, i64 noundef %128, i64 noundef %128, i64 noundef %131)
  br label %tcg_gen_sari_i64.exit

133:                                              ; preds = %.split
  switch i32 %3, label %158 [
    i32 32, label %134
    i32 16, label %142
    i32 8, label %150
  ]

134:                                              ; preds = %133
  %135 = zext nneg i32 %2 to i64
  tail call void @tcg_gen_shri_i64(ptr noundef %0, ptr noundef %1, i64 noundef %135)
  %136 = tail call align 8 ptr @llvm.threadlocal.address.p0(ptr align 8 @tcg_ctx)
  %137 = load ptr, ptr %136, align 8
  %138 = ptrtoint ptr %0 to i64
  %139 = getelementptr inbounds nuw i8, ptr %137, i64 %138
  %140 = ptrtoint ptr %139 to i64
  %141 = tail call ptr @tcg_gen_op2(i32 noundef 106, i32 noundef 1, i64 noundef %140, i64 noundef %140)
  br label %tcg_gen_sari_i64.exit

142:                                              ; preds = %133
  %143 = zext nneg i32 %2 to i64
  tail call void @tcg_gen_shri_i64(ptr noundef %0, ptr noundef %1, i64 noundef %143)
  %144 = tail call align 8 ptr @llvm.threadlocal.address.p0(ptr align 8 @tcg_ctx)
  %145 = load ptr, ptr %144, align 8
  %146 = ptrtoint ptr %0 to i64
  %147 = getelementptr inbounds nuw i8, ptr %145, i64 %146
  %148 = ptrtoint ptr %147 to i64
  %149 = tail call ptr @tcg_gen_op2(i32 noundef 105, i32 noundef 1, i64 noundef %148, i64 noundef %148)
  br label %tcg_gen_sari_i64.exit

150:                                              ; preds = %133
  %151 = zext nneg i32 %2 to i64
  tail call void @tcg_gen_shri_i64(ptr noundef %0, ptr noundef %1, i64 noundef %151)
  %152 = tail call align 8 ptr @llvm.threadlocal.address.p0(ptr align 8 @tcg_ctx)
  %153 = load ptr, ptr %152, align 8
  %154 = ptrtoint ptr %0 to i64
  %155 = getelementptr inbounds nuw i8, ptr %153, i64 %154
  %156 = ptrtoint ptr %155 to i64
  %157 = tail call ptr @tcg_gen_op2(i32 noundef 104, i32 noundef 1, i64 noundef %156, i64 noundef %156)
  br label %tcg_gen_sari_i64.exit

158:                                              ; preds = %133
  %159 = sub nuw nsw i32 64, %3
  %160 = sub nsw i32 %159, %2
  %161 = zext i32 %160 to i64
  tail call void @tcg_gen_shli_i64(ptr noundef %0, ptr noundef %1, i64 noundef %161)
  %162 = zext nneg i32 %159 to i64
  tail call void @tcg_gen_sari_i64(ptr noundef %0, ptr noundef %0, i64 noundef %162)
  br label %tcg_gen_sari_i64.exit

tcg_gen_sari_i64.exit:                            ; preds = %123, %113, %103, %93, %83, %73, %24, %14, %12, %158, %150, %142, %134, %63, %53, %43
  ret void
}